target datalayout = "e-m:e-p270:32:32-p271:32:32-p272:64:64-i64:64-i128:128-f80:128-n8:16:32:64-S128"
target triple = "x86_64-pc-linux-gnu"

%struct.archive_write = type { %struct.archive, i32, i64, i64, ptr, i64, ptr, ptr, ptr, ptr, ptr, i32, i32, ptr, ptr, ptr, ptr, ptr, ptr, ptr, ptr, ptr, ptr, ptr, ptr, ptr, ptr }
%struct.archive = type { i32, i32, ptr, i32, ptr, i32, i32, ptr, %struct.archive_string, ptr, i32, i32, ptr, ptr, i64, i64, i64, i8, i64 }
%struct.archive_string = type { ptr, i64, i64 }
%struct.shar = type { i32, i32, ptr, i32, ptr, [45 x i8], i64, i32, %struct.archive_string, %struct.archive_string }

@.str = private unnamed_addr constant [30 x i8] c"archive_write_set_format_shar\00", align 1
@.str.1 = private unnamed_addr constant [25 x i8] c"Can't allocate shar data\00", align 1
@.str.2 = private unnamed_addr constant [5 x i8] c"shar\00", align 1
@.str.3 = private unnamed_addr constant [10 x i8] c"shar dump\00", align 1

; Function Attrs: nounwind uwtable
define dso_local i32 @archive_write_set_format_shar(ptr noundef %0) #0 {
  %2 = alloca i32, align 4
  %3 = alloca ptr, align 8
  %4 = alloca ptr, align 8
  %5 = alloca ptr, align 8
  %6 = alloca i32, align 4
  %7 = alloca i32, align 4
  store ptr %0, ptr %3, align 8, !tbaa !4
  call void @llvm.lifetime.start.p0(i64 8, ptr %4) #7
  %8 = load ptr, ptr %3, align 8, !tbaa !4
  store ptr %8, ptr %4, align 8, !tbaa !9
  call void @llvm.lifetime.start.p0(i64 8, ptr %5) #7
  br label %9

9:                                                ; preds = %1
  call void @llvm.lifetime.start.p0(i64 4, ptr %6) #7
  %10 = load ptr, ptr %3, align 8, !tbaa !4
  %11 = call i32 @__archive_check_magic(ptr noundef %10, i32 noundef -1329217314, i32 noundef 1, ptr noundef @.str)
  store i32 %11, ptr %6, align 4, !tbaa !11
  %12 = load i32, ptr %6, align 4, !tbaa !11
  %13 = icmp eq i32 %12, -30
  br i1 %13, label %14, label %15

14:                                               ; preds = %9
  store i32 -30, ptr %2, align 4
  store i32 1, ptr %7, align 4
  br label %16

15:                                               ; preds = %9
  store i32 0, ptr %7, align 4
  br label %16

16:                                               ; preds = %15, %14
  call void @llvm.lifetime.end.p0(i64 4, ptr %6) #7
  %17 = load i32, ptr %7, align 4
  switch i32 %17, label %84 [
    i32 0, label %18
  ]

18:                                               ; preds = %16
  br label %19

19:                                               ; preds = %18
  br label %20

20:                                               ; preds = %19
  %21 = load ptr, ptr %4, align 8, !tbaa !9
  %22 = getelementptr inbounds nuw %struct.archive_write, ptr %21, i32 0, i32 23
  %23 = load ptr, ptr %22, align 8, !tbaa !13
  %24 = icmp ne ptr %23, null
  br i1 %24, label %25, label %31

25:                                               ; preds = %20
  %26 = load ptr, ptr %4, align 8, !tbaa !9
  %27 = getelementptr inbounds nuw %struct.archive_write, ptr %26, i32 0, i32 23
  %28 = load ptr, ptr %27, align 8, !tbaa !13
  %29 = load ptr, ptr %4, align 8, !tbaa !9
  %30 = call i32 %28(ptr noundef %29)
  br label %31

31:                                               ; preds = %25, %20
  %32 = call noalias ptr @calloc(i64 noundef 1, i64 noundef 144) #8
  store ptr %32, ptr %5, align 8, !tbaa !22
  %33 = load ptr, ptr %5, align 8, !tbaa !22
  %34 = icmp eq ptr %33, null
  br i1 %34, label %35, label %38

35:                                               ; preds = %31
  %36 = load ptr, ptr %4, align 8, !tbaa !9
  %37 = getelementptr inbounds nuw %struct.archive_write, ptr %36, i32 0, i32 0
  call void (ptr, i32, ptr, ...) @archive_set_error(ptr noundef %37, i32 noundef 12, ptr noundef @.str.1)
  store i32 -30, ptr %2, align 4
  store i32 1, ptr %7, align 4
  br label %84

38:                                               ; preds = %31
  br label %39

39:                                               ; preds = %38
  %40 = load ptr, ptr %5, align 8, !tbaa !22
  %41 = getelementptr inbounds nuw %struct.shar, ptr %40, i32 0, i32 8
  %42 = getelementptr inbounds nuw %struct.archive_string, ptr %41, i32 0, i32 0
  store ptr null, ptr %42, align 8, !tbaa !24
  %43 = load ptr, ptr %5, align 8, !tbaa !22
  %44 = getelementptr inbounds nuw %struct.shar, ptr %43, i32 0, i32 8
  %45 = getelementptr inbounds nuw %struct.archive_string, ptr %44, i32 0, i32 1
  store i64 0, ptr %45, align 8, !tbaa !27
  %46 = load ptr, ptr %5, align 8, !tbaa !22
  %47 = getelementptr inbounds nuw %struct.shar, ptr %46, i32 0, i32 8
  %48 = getelementptr inbounds nuw %struct.archive_string, ptr %47, i32 0, i32 2
  store i64 0, ptr %48, align 8, !tbaa !28
  br label %49

49:                                               ; preds = %39
  br label %50

50:                                               ; preds = %49
  br label %51

51:                                               ; preds = %50
  %52 = load ptr, ptr %5, align 8, !tbaa !22
  %53 = getelementptr inbounds nuw %struct.shar, ptr %52, i32 0, i32 9
  %54 = getelementptr inbounds nuw %struct.archive_string, ptr %53, i32 0, i32 0
  store ptr null, ptr %54, align 8, !tbaa !29
  %55 = load ptr, ptr %5, align 8, !tbaa !22
  %56 = getelementptr inbounds nuw %struct.shar, ptr %55, i32 0, i32 9
  %57 = getelementptr inbounds nuw %struct.archive_string, ptr %56, i32 0, i32 1
  store i64 0, ptr %57, align 8, !tbaa !30
  %58 = load ptr, ptr %5, align 8, !tbaa !22
  %59 = getelementptr inbounds nuw %struct.shar, ptr %58, i32 0, i32 9
  %60 = getelementptr inbounds nuw %struct.archive_string, ptr %59, i32 0, i32 2
  store i64 0, ptr %60, align 8, !tbaa !31
  br label %61

61:                                               ; preds = %51
  br label %62

62:                                               ; preds = %61
  %63 = load ptr, ptr %5, align 8, !tbaa !22
  %64 = load ptr, ptr %4, align 8, !tbaa !9
  %65 = getelementptr inbounds nuw %struct.archive_write, ptr %64, i32 0, i32 15
  store ptr %63, ptr %65, align 8, !tbaa !32
  %66 = load ptr, ptr %4, align 8, !tbaa !9
  %67 = getelementptr inbounds nuw %struct.archive_write, ptr %66, i32 0, i32 16
  store ptr @.str.2, ptr %67, align 8, !tbaa !33
  %68 = load ptr, ptr %4, align 8, !tbaa !9
  %69 = getelementptr inbounds nuw %struct.archive_write, ptr %68, i32 0, i32 20
  store ptr @archive_write_shar_header, ptr %69, align 8, !tbaa !34
  %70 = load ptr, ptr %4, align 8, !tbaa !9
  %71 = getelementptr inbounds nuw %struct.archive_write, ptr %70, i32 0, i32 22
  store ptr @archive_write_shar_close, ptr %71, align 8, !tbaa !35
  %72 = load ptr, ptr %4, align 8, !tbaa !9
  %73 = getelementptr inbounds nuw %struct.archive_write, ptr %72, i32 0, i32 23
  store ptr @archive_write_shar_free, ptr %73, align 8, !tbaa !13
  %74 = load ptr, ptr %4, align 8, !tbaa !9
  %75 = getelementptr inbounds nuw %struct.archive_write, ptr %74, i32 0, i32 21
  store ptr @archive_write_shar_data_sed, ptr %75, align 8, !tbaa !36
  %76 = load ptr, ptr %4, align 8, !tbaa !9
  %77 = getelementptr inbounds nuw %struct.archive_write, ptr %76, i32 0, i32 19
  store ptr @archive_write_shar_finish_entry, ptr %77, align 8, !tbaa !37
  %78 = load ptr, ptr %4, align 8, !tbaa !9
  %79 = getelementptr inbounds nuw %struct.archive_write, ptr %78, i32 0, i32 0
  %80 = getelementptr inbounds nuw %struct.archive, ptr %79, i32 0, i32 3
  store i32 131073, ptr %80, align 8, !tbaa !38
  %81 = load ptr, ptr %4, align 8, !tbaa !9
  %82 = getelementptr inbounds nuw %struct.archive_write, ptr %81, i32 0, i32 0
  %83 = getelementptr inbounds nuw %struct.archive, ptr %82, i32 0, i32 4
  store ptr @.str.2, ptr %83, align 8, !tbaa !39
  store i32 0, ptr %2, align 4
  store i32 1, ptr %7, align 4
  br label %84

84:                                               ; preds = %62, %35, %16
  call void @llvm.lifetime.end.p0(i64 8, ptr %5) #7
  call void @llvm.lifetime.end.p0(i64 8, ptr %4) #7
  %85 = load i32, ptr %2, align 4
  ret i32 %85
}

; Function Attrs: nounwind uwtable
define dso_local i32 @archive_write_set_format_shar_dump(ptr noundef %0) #0 {
  %2 = alloca ptr, align 8
  %3 = alloca ptr, align 8
  %4 = alloca ptr, align 8
  store ptr %0, ptr %2, align 8, !tbaa !4
  call void @llvm.lifetime.start.p0(i64 8, ptr %3) #7
  %5 = load ptr, ptr %2, align 8, !tbaa !4
  store ptr %5, ptr %3, align 8, !tbaa !9
  call void @llvm.lifetime.start.p0(i64 8, ptr %4) #7
  %6 = load ptr, ptr %3, align 8, !tbaa !9
  %7 = getelementptr inbounds nuw %struct.archive_write, ptr %6, i32 0, i32 0
  %8 = call i32 @archive_write_set_format_shar(ptr noundef %7)
  %9 = load ptr, ptr %3, align 8, !tbaa !9
  %10 = getelementptr inbounds nuw %struct.archive_write, ptr %9, i32 0, i32 15
  %11 = load ptr, ptr %10, align 8, !tbaa !32
  store ptr %11, ptr %4, align 8, !tbaa !22
  %12 = load ptr, ptr %4, align 8, !tbaa !22
  %13 = getelementptr inbounds nuw %struct.shar, ptr %12, i32 0, i32 0
  store i32 1, ptr %13, align 8, !tbaa !47
  %14 = load ptr, ptr %3, align 8, !tbaa !9
  %15 = getelementptr inbounds nuw %struct.archive_write, ptr %14, i32 0, i32 21
  store ptr @archive_write_shar_data_uuencode, ptr %15, align 8, !tbaa !36
  %16 = load ptr, ptr %3, align 8, !tbaa !9
  %17 = getelementptr inbounds nuw %struct.archive_write, ptr %16, i32 0, i32 0
  %18 = getelementptr inbounds nuw %struct.archive, ptr %17, i32 0, i32 3
  store i32 131074, ptr %18, align 8, !tbaa !38
  %19 = load ptr, ptr %3, align 8, !tbaa !9
  %20 = getelementptr inbounds nuw %struct.archive_write, ptr %19, i32 0, i32 0
  %21 = getelementptr inbounds nuw %struct.archive, ptr %20, i32 0, i32 4
  store ptr @.str.3, ptr %21, align 8, !tbaa !39
  call void @llvm.lifetime.end.p0(i64 8, ptr %4) #7
  call void @llvm.lifetime.end.p0(i64 8, ptr %3) #7
  ret i32 0
}